target datalayout = "e-m:e-p270:32:32-p271:32:32-p272:64:64-i64:64-i128:128-f80:128-n8:16:32:64-S128"
target triple = "x86_64-pc-linux-gnu"

%struct.plugin_id_name = type { i32, ptr }
%struct.slurm_select_ops_t = type { ptr, ptr, ptr, ptr, ptr, ptr, ptr, ptr, ptr, ptr, ptr, ptr, ptr, ptr, ptr, ptr, ptr, ptr, ptr, ptr, ptr, ptr, ptr, ptr, ptr, ptr, ptr, ptr, ptr, ptr, ptr, ptr }
%struct.dynamic_plugin_data = type { ptr, i32 }

@plugin_ids = dso_local constant [2 x { i32, [4 x i8], ptr }] [{ i32, [4 x i8], ptr } { i32 102, [4 x i8] zeroinitializer, ptr @.str }, { i32, [4 x i8], ptr } { i32 109, [4 x i8] zeroinitializer, ptr @.str.1 }], align 16
@.str.2 = private unnamed_addr constant [33 x i8] c"%s: unknown select plugin id: %d\00", align 1
@__func__.select_plugin_id_to_string = private unnamed_addr constant [27 x i8] c"select_plugin_id_to_string\00", align 1
@select_context_cnt = internal global i32 -1, align 4
@.str.6 = private unnamed_addr constant [9 x i8] c"select.c\00", align 1
@ops = internal global ptr null, align 8
@select_context_default = internal global i32 -1, align 4
@.str.29 = private unnamed_addr constant [39 x i8] c"%s: protocol_version %hu not supported\00", align 1
@.str.30 = private unnamed_addr constant [31 x i8] c"%s: select plugin %s not found\00", align 1
@.str.31 = private unnamed_addr constant [17 x i8] c"%s: unpack error\00", align 1
@__func__.select_g_select_jobinfo_alloc = private unnamed_addr constant [30 x i8] c"select_g_select_jobinfo_alloc\00", align 1
@__func__.select_g_select_jobinfo_unpack = private unnamed_addr constant [31 x i8] c"select_g_select_jobinfo_unpack\00", align 1

; Function Attrs: nounwind uwtable
define dso_local ptr @select_g_select_jobinfo_alloc() #0 {
  %1 = alloca ptr, align 8
  call void @llvm.lifetime.start.p0(i64 8, ptr %1) #7
  store ptr null, ptr %1, align 8
  %2 = call ptr @slurm_xcalloc(i64 noundef 1, i64 noundef 16, i1 noundef zeroext true, i1 noundef zeroext false, ptr noundef @.str.6, i32 noundef 834, ptr noundef @__func__.select_g_select_jobinfo_alloc)
  store ptr %2, ptr %1, align 8
  %3 = load i32, ptr @select_context_default, align 4
  %4 = load ptr, ptr %1, align 8
  %5 = getelementptr inbounds nuw %struct.dynamic_plugin_data, ptr %4, i32 0, i32 1
  store i32 %3, ptr %5, align 8
  %6 = load ptr, ptr @ops, align 8
  %7 = load i32, ptr @select_context_default, align 4
  %8 = sext i32 %7 to i64
  %9 = getelementptr inbounds %struct.slurm_select_ops_t, ptr %6, i64 %8
  %10 = getelementptr inbounds nuw %struct.slurm_select_ops_t, ptr %9, i32 0, i32 23
  %11 = load ptr, ptr %10, align 8
  %12 = call ptr %11()
  %13 = load ptr, ptr %1, align 8
  %14 = getelementptr inbounds nuw %struct.dynamic_plugin_data, ptr %13, i32 0, i32 0
  store ptr %12, ptr %14, align 8
  %15 = load ptr, ptr %1, align 8
  call void @llvm.lifetime.end.p0(i64 8, ptr %1) #7
  ret ptr %15
}

; Function Attrs: nounwind uwtable
define dso_local i32 @select_g_select_jobinfo_free(ptr noundef %0) #0 {
  %2 = alloca ptr, align 8
  %3 = alloca i32, align 4
  store ptr %0, ptr %2, align 8
  call void @llvm.lifetime.start.p0(i64 4, ptr %3) #7
  store i32 0, ptr %3, align 4
  %4 = load ptr, ptr %2, align 8
  %5 = icmp ne ptr %4, null
  br i1 %5, label %6, label %25

6:                                                ; preds = %1
  %7 = load ptr, ptr %2, align 8
  %8 = getelementptr inbounds nuw %struct.dynamic_plugin_data, ptr %7, i32 0, i32 0
  %9 = load ptr, ptr %8, align 8
  %10 = icmp ne ptr %9, null
  br i1 %10, label %11, label %24

11:                                               ; preds = %6
  %12 = load ptr, ptr @ops, align 8
  %13 = load ptr, ptr %2, align 8
  %14 = getelementptr inbounds nuw %struct.dynamic_plugin_data, ptr %13, i32 0, i32 1
  %15 = load i32, ptr %14, align 8
  %16 = zext i32 %15 to i64
  %17 = getelementptr inbounds nuw %struct.slurm_select_ops_t, ptr %12, i64 %16
  %18 = getelementptr inbounds nuw %struct.slurm_select_ops_t, ptr %17, i32 0, i32 24
  %19 = load ptr, ptr %18, align 8
  %20 = load ptr, ptr %2, align 8
  %21 = getelementptr inbounds nuw %struct.dynamic_plugin_data, ptr %20, i32 0, i32 0
  %22 = load ptr, ptr %21, align 8
  %23 = call i32 %19(ptr noundef %22)
  store i32 %23, ptr %3, align 4
  br label %24

24:                                               ; preds = %11, %6
  call void @slurm_xfree(ptr noundef %2)
  br label %25

25:                                               ; preds = %24, %1
  %26 = load i32, ptr %3, align 4
  call void @llvm.lifetime.end.p0(i64 4, ptr %3) #7
  ret i32 %26
}

; Function Attrs: nounwind uwtable
define dso_local ptr @select_plugin_id_to_string(i32 noundef %0) #0 {
  %2 = alloca ptr, align 8
  %3 = alloca i32, align 4
  %4 = alloca i32, align 4
  %5 = alloca i32, align 4
  store i32 %0, ptr %3, align 4
  call void @llvm.lifetime.start.p0(i64 4, ptr %4) #7
  store i32 0, ptr %4, align 4
  br label %6

6:                                                ; preds = %26, %1
  %7 = load i32, ptr %4, align 4
  %8 = sext i32 %7 to i64
  %9 = icmp ult i64 %8, 2
  br i1 %9, label %11, label %10

10:                                               ; preds = %6
  store i32 2, ptr %5, align 4
  br label %29

11:                                               ; preds = %6
  %12 = load i32, ptr %3, align 4
  %13 = load i32, ptr %4, align 4
  %14 = sext i32 %13 to i64
  %15 = getelementptr inbounds [2 x %struct.plugin_id_name], ptr @plugin_ids, i64 0, i64 %14
  %16 = getelementptr inbounds nuw %struct.plugin_id_name, ptr %15, i32 0, i32 0
  %17 = load i32, ptr %16, align 16
  %18 = icmp eq i32 %12, %17
  br i1 %18, label %19, label %25

19:                                               ; preds = %11
  %20 = load i32, ptr %4, align 4
  %21 = sext i32 %20 to i64
  %22 = getelementptr inbounds [2 x %struct.plugin_id_name], ptr @plugin_ids, i64 0, i64 %21
  %23 = getelementptr inbounds nuw %struct.plugin_id_name, ptr %22, i32 0, i32 1
  %24 = load ptr, ptr %23, align 8
  store ptr %24, ptr %2, align 8
  store i32 1, ptr %5, align 4
  br label %29

25:                                               ; preds = %11
  br label %26

26:                                               ; preds = %25
  %27 = load i32, ptr %4, align 4
  %28 = add nsw i32 %27, 1
  store i32 %28, ptr %4, align 4
  br label %6, !llvm.loop !8

29:                                               ; preds = %19, %10
  call void @llvm.lifetime.end.p0(i64 4, ptr %4) #7
  %30 = load i32, ptr %5, align 4
  switch i32 %30, label %36 [
    i32 2, label %31
    i32 1, label %34
  ]

31:                                               ; preds = %29
  %32 = load i32, ptr %3, align 4
  %33 = call i32 (ptr, ...) @error(ptr noundef @.str.2, ptr noundef @__func__.select_plugin_id_to_string, i32 noundef %32)
  store ptr null, ptr %2, align 8
  br label %34

34:                                               ; preds = %31, %29
  %35 = load ptr, ptr %2, align 8
  ret ptr %35

36:                                               ; preds = %29
  unreachable
}

; Function Attrs: nounwind uwtable
define dso_local i32 @select_get_plugin_id_pos(i32 noundef %0) #0 {
  %2 = alloca i32, align 4
  %3 = alloca i32, align 4
  %4 = alloca i32, align 4
  %5 = alloca i32, align 4
  store i32 %0, ptr %3, align 4
  call void @llvm.lifetime.start.p0(i64 4, ptr %4) #7
  store i32 0, ptr %4, align 4
  br label %6

6:                                                ; preds = %24, %1
  %7 = load i32, ptr %4, align 4
  %8 = load i32, ptr @select_context_cnt, align 4
  %9 = icmp slt i32 %7, %8
  br i1 %9, label %11, label %10

10:                                               ; preds = %6
  store i32 2, ptr %5, align 4
  br label %27

11:                                               ; preds = %6
  %12 = load ptr, ptr @ops, align 8
  %13 = load i32, ptr %4, align 4
  %14 = sext i32 %13 to i64
  %15 = getelementptr inbounds %struct.slurm_select_ops_t, ptr %12, i64 %14
  %16 = getelementptr inbounds nuw %struct.slurm_select_ops_t, ptr %15, i32 0, i32 0
  %17 = load ptr, ptr %16, align 8
  %18 = load i32, ptr %17, align 4
  %19 = load i32, ptr %3, align 4
  %20 = icmp eq i32 %18, %19
  br i1 %20, label %21, label %23

21:                                               ; preds = %11
  %22 = load i32, ptr %4, align 4
  store i32 %22, ptr %2, align 4
  store i32 1, ptr %5, align 4
  br label %27

23:                                               ; preds = %11
  br label %24

24:                                               ; preds = %23
  %25 = load i32, ptr %4, align 4
  %26 = add nsw i32 %25, 1
  store i32 %26, ptr %4, align 4
  br label %6, !llvm.loop !17

27:                                               ; preds = %21, %10
  call void @llvm.lifetime.end.p0(i64 4, ptr %4) #7
  %28 = load i32, ptr %5, align 4
  switch i32 %28, label %32 [
    i32 2, label %29
    i32 1, label %30
  ]

29:                                               ; preds = %27
  store i32 -1, ptr %2, align 4
  br label %30

30:                                               ; preds = %29, %27
  %31 = load i32, ptr %2, align 4
  ret i32 %31

32:                                               ; preds = %27
  unreachable
}

; Function Attrs: nounwind uwtable
define dso_local i32 @select_g_select_jobinfo_unpack(ptr noundef %0, ptr noundef %1, i16 noundef zeroext %2) #0 {
  %4 = alloca i32, align 4
  %5 = alloca ptr, align 8
  %6 = alloca ptr, align 8
  %7 = alloca i16, align 2
  %8 = alloca ptr, align 8
  %9 = alloca i32, align 4
  %10 = alloca i32, align 4
  %11 = alloca i32, align 4
  store ptr %0, ptr %5, align 8
  store ptr %1, ptr %6, align 8
  store i16 %2, ptr %7, align 2
  call void @llvm.lifetime.start.p0(i64 8, ptr %8) #7
  store ptr null, ptr %8, align 8
  %12 = call ptr @slurm_xcalloc(i64 noundef 1, i64 noundef 16, i1 noundef zeroext true, i1 noundef zeroext false, ptr noundef @.str.6, i32 noundef 967, ptr noundef @__func__.select_g_select_jobinfo_unpack)
  store ptr %12, ptr %8, align 8
  %13 = load ptr, ptr %8, align 8
  %14 = load ptr, ptr %5, align 8
  store ptr %13, ptr %14, align 8
  %15 = load i16, ptr %7, align 2
  %16 = zext i16 %15 to i32
  %17 = icmp sge i32 %16, 10240
  br i1 %17, label %18, label %42

18:                                               ; preds = %3
  call void @llvm.lifetime.start.p0(i64 4, ptr %9) #7
  call void @llvm.lifetime.start.p0(i64 4, ptr %10) #7
  br label %19

19:                                               ; preds = %18
  %20 = load ptr, ptr %6, align 8
  %21 = call i32 @unpack32(ptr noundef %10, ptr noundef %20)
  %22 = icmp ne i32 %21, 0
  br i1 %22, label %23, label %24

23:                                               ; preds = %19
  store i32 4, ptr %11, align 4
  br label %39

24:                                               ; preds = %19
  br label %25

25:                                               ; preds = %24
  br label %26

26:                                               ; preds = %25
  %27 = load i32, ptr %10, align 4
  %28 = call i32 @select_get_plugin_id_pos(i32 noundef %27)
  store i32 %28, ptr %9, align 4
  %29 = icmp eq i32 %28, -1
  br i1 %29, label %30, label %34

30:                                               ; preds = %26
  %31 = load i32, ptr %10, align 4
  %32 = call ptr @select_plugin_id_to_string(i32 noundef %31)
  %33 = call i32 (ptr, ...) @error(ptr noundef @.str.30, ptr noundef @__func__.select_g_select_jobinfo_unpack, ptr noundef %32)
  store i32 4, ptr %11, align 4
  br label %39

34:                                               ; preds = %26
  %35 = load i32, ptr %9, align 4
  %36 = load ptr, ptr %8, align 8
  %37 = getelementptr inbounds nuw %struct.dynamic_plugin_data, ptr %36, i32 0, i32 1
  store i32 %35, ptr %37, align 8
  br label %38

38:                                               ; preds = %34
  store i32 0, ptr %11, align 4
  br label %39

39:                                               ; preds = %30, %23, %38
  call void @llvm.lifetime.end.p0(i64 4, ptr %10) #7
  call void @llvm.lifetime.end.p0(i64 4, ptr %9) #7
  %40 = load i32, ptr %11, align 4
  switch i32 %40, label %84 [
    i32 0, label %41
    i32 4, label %79
  ]

41:                                               ; preds = %39
  br label %49

42:                                               ; preds = %3
  %43 = load i32, ptr @select_context_default, align 4
  %44 = load ptr, ptr %8, align 8
  %45 = getelementptr inbounds nuw %struct.dynamic_plugin_data, ptr %44, i32 0, i32 1
  store i32 %43, ptr %45, align 8
  %46 = load i16, ptr %7, align 2
  %47 = zext i16 %46 to i32
  %48 = call i32 (ptr, ...) @error(ptr noundef @.str.29, ptr noundef @__func__.select_g_select_jobinfo_unpack, i32 noundef %47)
  br label %79

49:                                               ; preds = %41
  %50 = load ptr, ptr @ops, align 8
  %51 = load ptr, ptr %8, align 8
  %52 = getelementptr inbounds nuw %struct.dynamic_plugin_data, ptr %51, i32 0, i32 1
  %53 = load i32, ptr %52, align 8
  %54 = zext i32 %53 to i64
  %55 = getelementptr inbounds nuw %struct.slurm_select_ops_t, ptr %50, i64 %54
  %56 = getelementptr inbounds nuw %struct.slurm_select_ops_t, ptr %55, i32 0, i32 29
  %57 = load ptr, ptr %56, align 8
  %58 = load ptr, ptr %8, align 8
  %59 = getelementptr inbounds nuw %struct.dynamic_plugin_data, ptr %58, i32 0, i32 0
  %60 = load ptr, ptr %6, align 8
  %61 = load i16, ptr %7, align 2
  %62 = call i32 %57(ptr noundef %59, ptr noundef %60, i16 noundef zeroext %61)
  %63 = icmp ne i32 %62, 0
  br i1 %63, label %64, label %65

64:                                               ; preds = %49
  br label %79

65:                                               ; preds = %49
  %66 = load ptr, ptr %8, align 8
  %67 = getelementptr inbounds nuw %struct.dynamic_plugin_data, ptr %66, i32 0, i32 1
  %68 = load i32, ptr %67, align 8
  %69 = load i32, ptr @select_context_default, align 4
  %70 = icmp ne i32 %68, %69
  br i1 %70, label %71, label %78

71:                                               ; preds = %65
  %72 = call zeroext i1 @running_in_slurmctld()
  br i1 %72, label %73, label %78

73:                                               ; preds = %71
  %74 = load ptr, ptr %8, align 8
  %75 = call i32 @select_g_select_jobinfo_free(ptr noundef %74)
  %76 = call ptr @select_g_select_jobinfo_alloc()
  %77 = load ptr, ptr %5, align 8
  store ptr %76, ptr %77, align 8
  br label %78

78:                                               ; preds = %73, %71, %65
  store i32 0, ptr %4, align 4
  store i32 1, ptr %11, align 4
  br label %84

79:                                               ; preds = %39, %64, %42
  %80 = load ptr, ptr %8, align 8
  %81 = call i32 @select_g_select_jobinfo_free(ptr noundef %80)
  %82 = load ptr, ptr %5, align 8
  store ptr null, ptr %82, align 8
  %83 = call i32 (ptr, ...) @error(ptr noundef @.str.31, ptr noundef @__func__.select_g_select_jobinfo_unpack)
  store i32 -1, ptr %4, align 4
  store i32 1, ptr %11, align 4
  br label %84

84:                                               ; preds = %79, %78, %39
  call void @llvm.lifetime.end.p0(i64 8, ptr %8) #7
  %85 = load i32, ptr %4, align 4
  ret i32 %85
}